target datalayout = "e-m:e-p270:32:32-p271:32:32-p272:64:64-i64:64-i128:128-f80:128-n8:16:32:64-S128"
target triple = "x86_64-pc-linux-gnu"

; Function Attrs: nounwind uwtable
define internal void @ac3_downmix_5_to_1_symmetric_c(ptr noundef %0, ptr noundef %1, i32 noundef %2) #0 {
  %4 = alloca ptr, align 8
  %5 = alloca ptr, align 8
  %6 = alloca i32, align 4
  %7 = alloca i32, align 4
  %8 = alloca float, align 4
  %9 = alloca float, align 4
  %10 = alloca float, align 4
  store ptr %0, ptr %4, align 8, !tbaa !35
  store ptr %1, ptr %5, align 8, !tbaa !35
  store i32 %2, ptr %6, align 4, !tbaa !14
  call void @llvm.lifetime.start.p0(i64 4, ptr %7) #6
  call void @llvm.lifetime.start.p0(i64 4, ptr %8) #6
  %11 = load ptr, ptr %5, align 8, !tbaa !35
  %12 = getelementptr inbounds ptr, ptr %11, i64 0
  %13 = load ptr, ptr %12, align 8, !tbaa !38
  %14 = getelementptr inbounds float, ptr %13, i64 0
  %15 = load float, ptr %14, align 4, !tbaa !40
  store float %15, ptr %8, align 4, !tbaa !40
  call void @llvm.lifetime.start.p0(i64 4, ptr %9) #6
  %16 = load ptr, ptr %5, align 8, !tbaa !35
  %17 = getelementptr inbounds ptr, ptr %16, i64 0
  %18 = load ptr, ptr %17, align 8, !tbaa !38
  %19 = getelementptr inbounds float, ptr %18, i64 1
  %20 = load float, ptr %19, align 4, !tbaa !40
  store float %20, ptr %9, align 4, !tbaa !40
  call void @llvm.lifetime.start.p0(i64 4, ptr %10) #6
  %21 = load ptr, ptr %5, align 8, !tbaa !35
  %22 = getelementptr inbounds ptr, ptr %21, i64 0
  %23 = load ptr, ptr %22, align 8, !tbaa !38
  %24 = getelementptr inbounds float, ptr %23, i64 3
  %25 = load float, ptr %24, align 4, !tbaa !40
  store float %25, ptr %10, align 4, !tbaa !40
  store i32 0, ptr %7, align 4, !tbaa !14
  br label %26

26:                                               ; preds = %82, %3
  %27 = load i32, ptr %7, align 4, !tbaa !14
  %28 = load i32, ptr %6, align 4, !tbaa !14
  %29 = icmp slt i32 %27, %28
  br i1 %29, label %30, label %85

30:                                               ; preds = %26
  %31 = load ptr, ptr %4, align 8, !tbaa !35
  %32 = getelementptr inbounds ptr, ptr %31, i64 0
  %33 = load ptr, ptr %32, align 8, !tbaa !38
  %34 = load i32, ptr %7, align 4, !tbaa !14
  %35 = sext i32 %34 to i64
  %36 = getelementptr inbounds float, ptr %33, i64 %35
  %37 = load float, ptr %36, align 4, !tbaa !40
  %38 = load float, ptr %8, align 4, !tbaa !40
  %39 = load ptr, ptr %4, align 8, !tbaa !35
  %40 = getelementptr inbounds ptr, ptr %39, i64 1
  %41 = load ptr, ptr %40, align 8, !tbaa !38
  %42 = load i32, ptr %7, align 4, !tbaa !14
  %43 = sext i32 %42 to i64
  %44 = getelementptr inbounds float, ptr %41, i64 %43
  %45 = load float, ptr %44, align 4, !tbaa !40
  %46 = load float, ptr %9, align 4, !tbaa !40
  %47 = fmul nsz float %45, %46
  %48 = call nsz float @llvm.fmuladd.f32(float %37, float %38, float %47)
  %49 = load ptr, ptr %4, align 8, !tbaa !35
  %50 = getelementptr inbounds ptr, ptr %49, i64 2
  %51 = load ptr, ptr %50, align 8, !tbaa !38
  %52 = load i32, ptr %7, align 4, !tbaa !14
  %53 = sext i32 %52 to i64
  %54 = getelementptr inbounds float, ptr %51, i64 %53
  %55 = load float, ptr %54, align 4, !tbaa !40
  %56 = load float, ptr %8, align 4, !tbaa !40
  %57 = call nsz float @llvm.fmuladd.f32(float %55, float %56, float %48)
  %58 = load ptr, ptr %4, align 8, !tbaa !35
  %59 = getelementptr inbounds ptr, ptr %58, i64 3
  %60 = load ptr, ptr %59, align 8, !tbaa !38
  %61 = load i32, ptr %7, align 4, !tbaa !14
  %62 = sext i32 %61 to i64
  %63 = getelementptr inbounds float, ptr %60, i64 %62
  %64 = load float, ptr %63, align 4, !tbaa !40
  %65 = load float, ptr %10, align 4, !tbaa !40
  %66 = call nsz float @llvm.fmuladd.f32(float %64, float %65, float %57)
  %67 = load ptr, ptr %4, align 8, !tbaa !35
  %68 = getelementptr inbounds ptr, ptr %67, i64 4
  %69 = load ptr, ptr %68, align 8, !tbaa !38
  %70 = load i32, ptr %7, align 4, !tbaa !14
  %71 = sext i32 %70 to i64
  %72 = getelementptr inbounds float, ptr %69, i64 %71
  %73 = load float, ptr %72, align 4, !tbaa !40
  %74 = load float, ptr %10, align 4, !tbaa !40
  %75 = call nsz float @llvm.fmuladd.f32(float %73, float %74, float %66)
  %76 = load ptr, ptr %4, align 8, !tbaa !35
  %77 = getelementptr inbounds ptr, ptr %76, i64 0
  %78 = load ptr, ptr %77, align 8, !tbaa !38
  %79 = load i32, ptr %7, align 4, !tbaa !14
  %80 = sext i32 %79 to i64
  %81 = getelementptr inbounds float, ptr %78, i64 %80
  store float %75, ptr %81, align 4, !tbaa !40
  br label %82

82:                                               ; preds = %30
  %83 = load i32, ptr %7, align 4, !tbaa !14
  %84 = add nsw i32 %83, 1
  store i32 %84, ptr %7, align 4, !tbaa !14
  br label %26, !llvm.loop !43

85:                                               ; preds = %26
  call void @llvm.lifetime.end.p0(i64 4, ptr %10) #6
  call void @llvm.lifetime.end.p0(i64 4, ptr %9) #6
  call void @llvm.lifetime.end.p0(i64 4, ptr %8) #6
  call void @llvm.lifetime.end.p0(i64 4, ptr %7) #6
  ret void
}